; Function Attrs: mustprogress nounwind uwtable
define void @_ZN10open_spiel4file4FileD2Ev(ptr nocapture noundef nonnull align 8 dereferenceable(8) %0) unnamed_addr #6 align 2 personality ptr @__gxx_personality_v0 {
  %2 = load ptr, ptr %0, align 8
  %.not = icmp eq ptr %2, null
  br i1 %.not, label %_ZNSt10unique_ptrIN10open_spiel4file4File8FileImplESt14default_deleteIS3_EED2Ev.exit, label %3

3:                                                ; preds = %1
  %4 = tail call i32 @fflush(ptr noundef nonnull %2)
  %5 = load ptr, ptr %0, align 8
  store ptr null, ptr %0, align 8
  %6 = tail call i32 @fclose(ptr noundef %5)
  %.pr = load ptr, ptr %0, align 8
  %.not.i2 = icmp eq ptr %.pr, null
  br i1 %.not.i2, label %_ZNSt10unique_ptrIN10open_spiel4file4File8FileImplESt14default_deleteIS3_EED2Ev.exit, label %_ZNKSt14default_deleteIN10open_spiel4file4File8FileImplEEclEPS3_.exit.i

_ZNKSt14default_deleteIN10open_spiel4file4File8FileImplEEclEPS3_.exit.i: ; preds = %3
  tail call void @_ZdlPvm(ptr noundef nonnull %.pr, i64 noundef 216) #18
  br label %_ZNSt10unique_ptrIN10open_spiel4file4File8FileImplESt14default_deleteIS3_EED2Ev.exit

_ZNSt10unique_ptrIN10open_spiel4file4File8FileImplESt14default_deleteIS3_EED2Ev.exit: ; preds = %1, %3, %_ZNKSt14default_deleteIN10open_spiel4file4File8FileImplEEclEPS3_.exit.i
  store ptr null, ptr %0, align 8
  ret void
}